target datalayout = "e-m:e-p270:32:32-p271:32:32-p272:64:64-i64:64-i128:128-f80:128-n8:16:32:64-S128"
target triple = "x86_64-pc-linux-gnu"

%"class.rocksdb::MergeIteratorBuilder" = type { ptr, ptr, i8, ptr, %"class.std::vector.71" }
%"class.std::vector.71" = type { %"struct.std::_Vector_base.72" }
%"struct.std::_Vector_base.72" = type { %"struct.std::_Vector_base<std::pair<unsigned long, std::unique_ptr<rocksdb::TruncatedRangeDelIterator> **>, std::allocator<std::pair<unsigned long, std::unique_ptr<rocksdb::TruncatedRangeDelIterator> **>>>::_Vector_impl" }
%"struct.std::_Vector_base<std::pair<unsigned long, std::unique_ptr<rocksdb::TruncatedRangeDelIterator> **>, std::allocator<std::pair<unsigned long, std::unique_ptr<rocksdb::TruncatedRangeDelIterator> **>>>::_Vector_impl" = type { %"struct.std::_Vector_base<std::pair<unsigned long, std::unique_ptr<rocksdb::TruncatedRangeDelIterator> **>, std::allocator<std::pair<unsigned long, std::unique_ptr<rocksdb::TruncatedRangeDelIterator> **>>>::_Vector_impl_data" }
%"struct.std::_Vector_base<std::pair<unsigned long, std::unique_ptr<rocksdb::TruncatedRangeDelIterator> **>, std::allocator<std::pair<unsigned long, std::unique_ptr<rocksdb::TruncatedRangeDelIterator> **>>>::_Vector_impl_data" = type { ptr, ptr, ptr }

; Function Attrs: mustprogress uwtable
define void @_ZN7rocksdb20MergeIteratorBuilder11AddIteratorEPNS_20InternalIteratorBaseINS_5SliceEEE(ptr noundef nonnull align 8 dereferenceable(56) %0, ptr noundef %1) #4 align 2 {
  %3 = alloca ptr, align 8
  %4 = alloca ptr, align 8
  store ptr %0, ptr %3, align 8, !tbaa !279
  store ptr %1, ptr %4, align 8, !tbaa !275
  %5 = load ptr, ptr %3, align 8
  %6 = getelementptr inbounds nuw %"class.rocksdb::MergeIteratorBuilder", ptr %5, i32 0, i32 2
  %7 = load i8, ptr %6, align 8, !tbaa !288, !range !76, !noundef !77
  %8 = trunc i8 %7 to i1
  br i1 %8, label %23, label %9

9:                                                ; preds = %2
  %10 = getelementptr inbounds nuw %"class.rocksdb::MergeIteratorBuilder", ptr %5, i32 0, i32 1
  %11 = load ptr, ptr %10, align 8, !tbaa !281
  %12 = icmp ne ptr %11, null
  br i1 %12, label %13, label %23

13:                                               ; preds = %9
  %14 = getelementptr inbounds nuw %"class.rocksdb::MergeIteratorBuilder", ptr %5, i32 0, i32 0
  %15 = load ptr, ptr %14, align 8, !tbaa !290
  %16 = getelementptr inbounds nuw %"class.rocksdb::MergeIteratorBuilder", ptr %5, i32 0, i32 1
  %17 = load ptr, ptr %16, align 8, !tbaa !281
  %18 = load ptr, ptr %15, align 8, !tbaa !26
  %19 = getelementptr inbounds ptr, ptr %18, i64 26
  %20 = load ptr, ptr %19, align 8
  call void %20(ptr noundef nonnull align 8 dereferenceable(344) %15, ptr noundef %17)
  %21 = getelementptr inbounds nuw %"class.rocksdb::MergeIteratorBuilder", ptr %5, i32 0, i32 2
  store i8 1, ptr %21, align 8, !tbaa !288
  %22 = getelementptr inbounds nuw %"class.rocksdb::MergeIteratorBuilder", ptr %5, i32 0, i32 1
  store ptr null, ptr %22, align 8, !tbaa !281
  br label %23

23:                                               ; preds = %13, %9, %2
  %24 = getelementptr inbounds nuw %"class.rocksdb::MergeIteratorBuilder", ptr %5, i32 0, i32 2
  %25 = load i8, ptr %24, align 8, !tbaa !288, !range !76, !noundef !77
  %26 = trunc i8 %25 to i1
  br i1 %26, label %27, label %34

27:                                               ; preds = %23
  %28 = getelementptr inbounds nuw %"class.rocksdb::MergeIteratorBuilder", ptr %5, i32 0, i32 0
  %29 = load ptr, ptr %28, align 8, !tbaa !290
  %30 = load ptr, ptr %4, align 8, !tbaa !275
  %31 = load ptr, ptr %29, align 8, !tbaa !26
  %32 = getelementptr inbounds ptr, ptr %31, i64 26
  %33 = load ptr, ptr %32, align 8
  call void %33(ptr noundef nonnull align 8 dereferenceable(344) %29, ptr noundef %30)
  br label %37

34:                                               ; preds = %23
  %35 = load ptr, ptr %4, align 8, !tbaa !275
  %36 = getelementptr inbounds nuw %"class.rocksdb::MergeIteratorBuilder", ptr %5, i32 0, i32 1
  store ptr %35, ptr %36, align 8, !tbaa !281
  br label %37

37:                                               ; preds = %34, %27
  ret void
}