; Function Attrs: mustprogress uwtable
define void @_ZN7rocksdb20MergeIteratorBuilder11AddIteratorEPNS_20InternalIteratorBaseINS_5SliceEEE(ptr noundef nonnull align 8 captures(none) dereferenceable(56) %0, ptr noundef %1) local_unnamed_addr #6 align 2 {
  %3 = getelementptr inbounds nuw i8, ptr %0, i64 16
  %4 = load i8, ptr %3, align 8, !tbaa !491, !range !220, !noundef !221
  %5 = trunc nuw i8 %4 to i1
  br i1 %5, label %14, label %6

6:                                                ; preds = %2
  %7 = getelementptr inbounds nuw i8, ptr %0, i64 8
  %8 = load ptr, ptr %7, align 8, !tbaa !482
  %.not = icmp eq ptr %8, null
  br i1 %.not, label %19, label %9

9:                                                ; preds = %6
  %10 = load ptr, ptr %0, align 8, !tbaa !493
  %11 = load ptr, ptr %10, align 8, !tbaa !66
  %12 = getelementptr inbounds nuw i8, ptr %11, i64 208
  %13 = load ptr, ptr %12, align 8
  tail call void %13(ptr noundef nonnull align 8 dereferenceable(344) %10, ptr noundef nonnull %8)
  store i8 1, ptr %3, align 8, !tbaa !491
  store ptr null, ptr %7, align 8, !tbaa !482
  br label %14

14:                                               ; preds = %9, %2
  %15 = load ptr, ptr %0, align 8, !tbaa !493
  %16 = load ptr, ptr %15, align 8, !tbaa !66
  %17 = getelementptr inbounds nuw i8, ptr %16, i64 208
  %18 = load ptr, ptr %17, align 8
  tail call void %18(ptr noundef nonnull align 8 dereferenceable(344) %15, ptr noundef %1)
  br label %21

19:                                               ; preds = %6
  %20 = getelementptr inbounds nuw i8, ptr %0, i64 8
  store ptr %1, ptr %20, align 8, !tbaa !482
  br label %21

21:                                               ; preds = %19, %14
  ret void
}